; Function Attrs: nofree norecurse nosync nounwind memory(argmem: readwrite) uwtable
define internal void @shuffle_bytes_1203_c(ptr noundef readonly captures(none) %0, ptr noundef writeonly captures(none) %1, i32 noundef %2) #0 {
  %4 = icmp sgt i32 %2, 0
  br i1 %4, label %.lr.ph.preheader, label %._crit_edge

.lr.ph.preheader:                                 ; preds = %3
  %5 = zext nneg i32 %2 to i64
  br label %.lr.ph

.lr.ph:                                           ; preds = %.lr.ph.preheader, %.lr.ph
  %indvars.iv = phi i64 [ 0, %.lr.ph.preheader ], [ %indvars.iv.next, %.lr.ph ]
  %6 = or disjoint i64 %indvars.iv, 1
  %7 = getelementptr inbounds nuw i8, ptr %0, i64 %6
  %8 = load i8, ptr %7, align 1, !tbaa !8
  %9 = getelementptr inbounds nuw i8, ptr %1, i64 %indvars.iv
  store i8 %8, ptr %9, align 1, !tbaa !8
  %10 = or disjoint i64 %indvars.iv, 2
  %11 = getelementptr inbounds nuw i8, ptr %0, i64 %10
  %12 = load i8, ptr %11, align 1, !tbaa !8
  %13 = getelementptr inbounds nuw i8, ptr %1, i64 %6
  store i8 %12, ptr %13, align 1, !tbaa !8
  %14 = getelementptr inbounds nuw i8, ptr %0, i64 %indvars.iv
  %15 = load i8, ptr %14, align 1, !tbaa !8
  %16 = getelementptr inbounds nuw i8, ptr %1, i64 %10
  store i8 %15, ptr %16, align 1, !tbaa !8
  %17 = or disjoint i64 %indvars.iv, 3
  %18 = getelementptr inbounds nuw i8, ptr %0, i64 %17
  %19 = load i8, ptr %18, align 1, !tbaa !8
  %20 = getelementptr inbounds nuw i8, ptr %1, i64 %17
  store i8 %19, ptr %20, align 1, !tbaa !8
  %indvars.iv.next = add nuw nsw i64 %indvars.iv, 4
  %21 = icmp samesign ult i64 %indvars.iv.next, %5
  br i1 %21, label %.lr.ph, label %._crit_edge, !llvm.loop !69

._crit_edge:                                      ; preds = %.lr.ph, %3
  ret void
}